; Function Attrs: mustprogress uwtable
define void @_ZNK8QuantLib21HestonBlackVolSurface10dayCounterEv(ptr dead_on_unwind noalias writable sret(%"class.QuantLib::DayCounter") align 8 %agg.result, ptr noundef nonnull align 8 dereferenceable(136) %this) unnamed_addr #8 align 2 personality ptr @__gxx_personality_v0 {
entry:
  %ref.tmp = alloca %"class.boost::shared_ptr.33", align 8
  call void @llvm.lifetime.start.p0(i64 16, ptr nonnull %ref.tmp) #28
  %hestonModel_ = getelementptr inbounds nuw i8, ptr %this, i64 72
  %call = tail call noundef nonnull align 8 dereferenceable(16) ptr @_ZNK8QuantLib6HandleINS_11HestonModelEEptEv(ptr noundef nonnull align 8 dereferenceable(16) %hestonModel_)
  %0 = load ptr, ptr %call, align 8, !tbaa !51
  %cmp.not.i = icmp eq ptr %0, null
  br i1 %cmp.not.i, label %cond.false.i, label %_ZNK5boost10shared_ptrIN8QuantLib11HestonModelEEptEv.exit, !prof !53

cond.false.i:                                     ; preds = %entry
  tail call void @_ZN5boost16assertion_failedEPKcS1_S1_l(ptr noundef nonnull @.str.10, ptr noundef nonnull @__PRETTY_FUNCTION__._ZNK5boost10shared_ptrIN8QuantLib11HestonModelEEptEv, ptr noundef nonnull @.str.11, i64 noundef 784)
  %.pre.i = load ptr, ptr %call, align 8, !tbaa !51
  br label %_ZNK5boost10shared_ptrIN8QuantLib11HestonModelEEptEv.exit

_ZNK5boost10shared_ptrIN8QuantLib11HestonModelEEptEv.exit: ; preds = %entry, %cond.false.i
  %1 = phi ptr [ %0, %entry ], [ %.pre.i, %cond.false.i ]
  tail call void @llvm.experimental.noalias.scope.decl(metadata !103)
  %process_.i = getelementptr inbounds nuw i8, ptr %1, i64 80
  %2 = load ptr, ptr %process_.i, align 8, !tbaa !57, !noalias !103
  store ptr %2, ptr %ref.tmp, align 8, !tbaa !57, !alias.scope !103
  %pn.i.i = getelementptr inbounds nuw i8, ptr %ref.tmp, i64 8
  %pn3.i.i = getelementptr inbounds nuw i8, ptr %1, i64 88
  %3 = load ptr, ptr %pn3.i.i, align 8, !tbaa !37, !noalias !103
  store ptr %3, ptr %pn.i.i, align 8, !tbaa !37, !alias.scope !103
  %cmp.not.i.i.i = icmp eq ptr %3, null
  br i1 %cmp.not.i.i.i, label %_ZNK8QuantLib11HestonModel7processEv.exit, label %if.then.i.i.i

if.then.i.i.i:                                    ; preds = %_ZNK5boost10shared_ptrIN8QuantLib11HestonModelEEptEv.exit
  %use_count_.i.i.i.i = getelementptr inbounds nuw i8, ptr %3, i64 8
  %4 = atomicrmw add ptr %use_count_.i.i.i.i, i32 1 monotonic, align 4, !noalias !103
  br label %_ZNK8QuantLib11HestonModel7processEv.exit

_ZNK8QuantLib11HestonModel7processEv.exit:        ; preds = %_ZNK5boost10shared_ptrIN8QuantLib11HestonModelEEptEv.exit, %if.then.i.i.i
  %cmp.not.i1 = icmp eq ptr %2, null
  br i1 %cmp.not.i1, label %cond.false.i2, label %invoke.cont, !prof !53

cond.false.i2:                                    ; preds = %_ZNK8QuantLib11HestonModel7processEv.exit
  invoke void @_ZN5boost16assertion_failedEPKcS1_S1_l(ptr noundef nonnull @.str.10, ptr noundef nonnull @__PRETTY_FUNCTION__._ZNK5boost10shared_ptrIN8QuantLib13HestonProcessEEptEv, ptr noundef nonnull @.str.11, i64 noundef 784)
          to label %invoke.cont unwind label %lpad

invoke.cont:                                      ; preds = %cond.false.i2, %_ZNK8QuantLib11HestonModel7processEv.exit
  %call5 = invoke noundef nonnull align 8 dereferenceable(16) ptr @_ZNK8QuantLib13HestonProcess12riskFreeRateEv(ptr noundef nonnull align 8 dereferenceable(220) %2)
          to label %invoke.cont4 unwind label %lpad

invoke.cont4:                                     ; preds = %invoke.cont
  %call7 = invoke noundef nonnull align 8 dereferenceable(16) ptr @_ZNK8QuantLib6HandleINS_18YieldTermStructureEEptEv(ptr noundef nonnull align 8 dereferenceable(16) %call5)
          to label %invoke.cont6 unwind label %lpad

invoke.cont6:                                     ; preds = %invoke.cont4
  %5 = load ptr, ptr %call7, align 8, !tbaa !59
  %cmp.not.i4 = icmp eq ptr %5, null
  br i1 %cmp.not.i4, label %cond.false.i5, label %invoke.cont8, !prof !53

cond.false.i5:                                    ; preds = %invoke.cont6
  invoke void @_ZN5boost16assertion_failedEPKcS1_S1_l(ptr noundef nonnull @.str.10, ptr noundef nonnull @__PRETTY_FUNCTION__._ZNK5boost10shared_ptrIN8QuantLib18YieldTermStructureEEptEv, ptr noundef nonnull @.str.11, i64 noundef 784)
          to label %.noexc7 unwind label %lpad

.noexc7:                                          ; preds = %cond.false.i5
  %.pre.i6 = load ptr, ptr %call7, align 8, !tbaa !59
  br label %invoke.cont8

invoke.cont8:                                     ; preds = %.noexc7, %invoke.cont6
  %6 = phi ptr [ %5, %invoke.cont6 ], [ %.pre.i6, %.noexc7 ]
  %vtable = load ptr, ptr %6, align 8, !tbaa !35
  %vfn = getelementptr inbounds i8, ptr %vtable, i64 16
  %7 = load ptr, ptr %vfn, align 8
  invoke void %7(ptr dead_on_unwind writable sret(%"class.QuantLib::DayCounter") align 8 %agg.result, ptr noundef nonnull align 8 dereferenceable(64) %6)
          to label %invoke.cont10 unwind label %lpad

invoke.cont10:                                    ; preds = %invoke.cont8
  br i1 %cmp.not.i.i.i, label %_ZN5boost10shared_ptrIN8QuantLib13HestonProcessEED2Ev.exit, label %if.then.i.i

if.then.i.i:                                      ; preds = %invoke.cont10
  %use_count_.i.i.i = getelementptr inbounds nuw i8, ptr %3, i64 8
  %8 = atomicrmw sub ptr %use_count_.i.i.i, i32 1 acq_rel, align 4
  %cmp.i.i.i = icmp eq i32 %8, 1
  br i1 %cmp.i.i.i, label %if.then.i.i.i8, label %_ZN5boost10shared_ptrIN8QuantLib13HestonProcessEED2Ev.exit

if.then.i.i.i8:                                   ; preds = %if.then.i.i
  %vtable.i.i.i = load ptr, ptr %3, align 8, !tbaa !35
  %vfn.i.i.i = getelementptr inbounds i8, ptr %vtable.i.i.i, i64 16
  %9 = load ptr, ptr %vfn.i.i.i, align 8
  invoke void %9(ptr noundef nonnull align 8 dereferenceable(16) %3)
          to label %.noexc.i.i unwind label %terminate.lpad.i.i

.noexc.i.i:                                       ; preds = %if.then.i.i.i8
  %weak_count_.i.i.i.i = getelementptr inbounds nuw i8, ptr %3, i64 12
  %10 = atomicrmw sub ptr %weak_count_.i.i.i.i, i32 1 acq_rel, align 4
  %cmp.i.i.i.i = icmp eq i32 %10, 1
  br i1 %cmp.i.i.i.i, label %if.then.i.i.i.i, label %_ZN5boost10shared_ptrIN8QuantLib13HestonProcessEED2Ev.exit

if.then.i.i.i.i:                                  ; preds = %.noexc.i.i
  %vtable.i.i.i.i = load ptr, ptr %3, align 8, !tbaa !35
  %vfn.i.i.i.i = getelementptr inbounds i8, ptr %vtable.i.i.i.i, i64 24
  %11 = load ptr, ptr %vfn.i.i.i.i, align 8
  invoke void %11(ptr noundef nonnull align 8 dereferenceable(16) %3)
          to label %_ZN5boost10shared_ptrIN8QuantLib13HestonProcessEED2Ev.exit unwind label %terminate.lpad.i.i

terminate.lpad.i.i:                               ; preds = %if.then.i.i.i.i, %if.then.i.i.i8
  %12 = landingpad { ptr, i32 }
          catch ptr null
  %13 = extractvalue { ptr, i32 } %12, 0
  tail call void @__clang_call_terminate(ptr %13) #29
  unreachable

_ZN5boost10shared_ptrIN8QuantLib13HestonProcessEED2Ev.exit: ; preds = %invoke.cont10, %if.then.i.i, %.noexc.i.i, %if.then.i.i.i.i
  call void @llvm.lifetime.end.p0(i64 16, ptr nonnull %ref.tmp) #28
  ret void

lpad:                                             ; preds = %cond.false.i5, %cond.false.i2, %invoke.cont8, %invoke.cont4, %invoke.cont
  %14 = landingpad { ptr, i32 }
          cleanup
  call void @_ZN5boost10shared_ptrIN8QuantLib13HestonProcessEED2Ev(ptr noundef nonnull align 8 dereferenceable(16) %ref.tmp) #28
  call void @llvm.lifetime.end.p0(i64 16, ptr nonnull %ref.tmp) #28
  resume { ptr, i32 } %14
}